target datalayout = "e-m:e-p270:32:32-p271:32:32-p272:64:64-i64:64-i128:128-f80:128-n8:16:32:64-S128"
target triple = "x86_64-pc-linux-gnu"

@hf_rsl_ie_id = internal global i32 0, align 4
@hf_rsl_meas_res_no = internal global i32 0, align 4
@ett_ie_meas_res_no = internal global i32 0, align 4
@.str.817 = private unnamed_addr constant [29 x i8] c"Measurement result number IE\00", align 1

; Function Attrs: null_pointer_is_valid sspstrong uwtable
define internal i32 @dissect_rsl_ie_meas_res_no(ptr noundef %0, ptr noundef %1, ptr noundef %2, i32 noundef %3, i1 noundef zeroext %4) #0 {
  %6 = alloca i32, align 4
  %7 = alloca ptr, align 8
  %8 = alloca ptr, align 8
  %9 = alloca ptr, align 8
  %10 = alloca i32, align 4
  %11 = alloca i8, align 1
  %12 = alloca ptr, align 8
  %13 = alloca i8, align 1
  %14 = alloca i32, align 4
  store ptr %0, ptr %7, align 8
  store ptr %1, ptr %8, align 8
  store ptr %2, ptr %9, align 8
  store i32 %3, ptr %10, align 4
  %15 = zext i1 %4 to i8
  store i8 %15, ptr %11, align 1
  call void @llvm.lifetime.start.p0(i64 8, ptr %12) #6
  call void @llvm.lifetime.start.p0(i64 1, ptr %13) #6
  %16 = load i8, ptr %11, align 1, !range !6, !noundef !7
  %17 = trunc i8 %16 to i1
  %18 = zext i1 %17 to i32
  %19 = icmp eq i32 %18, 0
  br i1 %19, label %20, label %30

20:                                               ; preds = %5
  %21 = load ptr, ptr %7, align 8
  %22 = load i32, ptr %10, align 4
  %23 = call zeroext i8 @tvb_get_uint8(ptr noundef %21, i32 noundef %22)
  store i8 %23, ptr %13, align 1
  %24 = load i8, ptr %13, align 1
  %25 = zext i8 %24 to i32
  %26 = icmp ne i32 %25, 27
  br i1 %26, label %27, label %29

27:                                               ; preds = %20
  %28 = load i32, ptr %10, align 4
  store i32 %28, ptr %6, align 4
  store i32 1, ptr %14, align 4
  br label %51

29:                                               ; preds = %20
  br label %30

30:                                               ; preds = %29, %5
  %31 = load ptr, ptr %9, align 8
  %32 = load ptr, ptr %7, align 8
  %33 = load i32, ptr %10, align 4
  %34 = load i32, ptr @ett_ie_meas_res_no, align 4
  %35 = call ptr @proto_tree_add_subtree(ptr noundef %31, ptr noundef %32, i32 noundef %33, i32 noundef 2, i32 noundef %34, ptr noundef null, ptr noundef @.str.817)
  store ptr %35, ptr %12, align 8
  %36 = load ptr, ptr %12, align 8
  %37 = load i32, ptr @hf_rsl_ie_id, align 4
  %38 = load ptr, ptr %7, align 8
  %39 = load i32, ptr %10, align 4
  %40 = call ptr @proto_tree_add_item(ptr noundef %36, i32 noundef %37, ptr noundef %38, i32 noundef %39, i32 noundef 1, i32 noundef 0)
  %41 = load i32, ptr %10, align 4
  %42 = add i32 %41, 1
  store i32 %42, ptr %10, align 4
  %43 = load ptr, ptr %12, align 8
  %44 = load i32, ptr @hf_rsl_meas_res_no, align 4
  %45 = load ptr, ptr %7, align 8
  %46 = load i32, ptr %10, align 4
  %47 = call ptr @proto_tree_add_item(ptr noundef %43, i32 noundef %44, ptr noundef %45, i32 noundef %46, i32 noundef 1, i32 noundef 0)
  %48 = load i32, ptr %10, align 4
  %49 = add i32 %48, 1
  store i32 %49, ptr %10, align 4
  %50 = load i32, ptr %10, align 4
  store i32 %50, ptr %6, align 4
  store i32 1, ptr %14, align 4
  br label %51

51:                                               ; preds = %30, %27
  call void @llvm.lifetime.end.p0(i64 1, ptr %13) #6
  call void @llvm.lifetime.end.p0(i64 8, ptr %12) #6
  %52 = load i32, ptr %6, align 4
  ret i32 %52
}